#include <math.h>
#include <stdio.h>
#include <stdlib.h>
#include <string.h>

int main ()
{
	int n,m=25,i,j,a[30],b[30];
	scanf("%d",&n);
	for(i=0;i<n;i++)
	{
		scanf("%d",&a[i]);
	}
		
	b[0]=1;
	b[1]=1;
	b[2]=2;
	for(j=3;j<m;j++)
		{
		b[j]=b[j-1]+b[j-2];
	}
		 
       for(i=0;i<n;i++)
	   {
	   printf("%d\n",b[a[i]-1]);
	   }

	   return 0;
}