; ModuleID = '61/1191.c'
source_filename = "61/1191.c"
target datalayout = "e-m:e-p270:32:32-p271:32:32-p272:64:64-i64:64-f80:128-n8:16:32:64-S128"
target triple = "x86_64-pc-linux-gnu"

@.str = private unnamed_addr constant [3 x i8] c"%d\00", align 1
@.str.1 = private unnamed_addr constant [4 x i8] c"%d\0A\00", align 1

; Function Attrs: noinline nounwind uwtable
define dso_local i32 @main() #0 {
  %1 = alloca i32, align 4
  %2 = alloca i32, align 4
  %3 = alloca i32, align 4
  %4 = alloca i32, align 4
  %5 = alloca i32, align 4
  %6 = alloca [30 x i32], align 16
  %7 = alloca [30 x i32], align 16
  store i32 0, i32* %1, align 4
  store i32 25, i32* %3, align 4
  %8 = call i32 (i8*, ...) @__isoc99_scanf(i8* getelementptr inbounds ([3 x i8], [3 x i8]* @.str, i64 0, i64 0), i32* %2)
  store i32 0, i32* %4, align 4
  br label %9

9:                                                ; preds = %18, %0
  %10 = load i32, i32* %4, align 4
  %11 = load i32, i32* %2, align 4
  %12 = icmp slt i32 %10, %11
  br i1 %12, label %13, label %21

13:                                               ; preds = %9
  %14 = load i32, i32* %4, align 4
  %15 = sext i32 %14 to i64
  %16 = getelementptr inbounds [30 x i32], [30 x i32]* %6, i64 0, i64 %15
  %17 = call i32 (i8*, ...) @__isoc99_scanf(i8* getelementptr inbounds ([3 x i8], [3 x i8]* @.str, i64 0, i64 0), i32* %16)
  br label %18

18:                                               ; preds = %13
  %19 = load i32, i32* %4, align 4
  %20 = add nsw i32 %19, 1
  store i32 %20, i32* %4, align 4
  br label %9

21:                                               ; preds = %9
  %22 = getelementptr inbounds [30 x i32], [30 x i32]* %7, i64 0, i64 0
  store i32 1, i32* %22, align 16
  %23 = getelementptr inbounds [30 x i32], [30 x i32]* %7, i64 0, i64 1
  store i32 1, i32* %23, align 4
  %24 = getelementptr inbounds [30 x i32], [30 x i32]* %7, i64 0, i64 2
  store i32 2, i32* %24, align 8
  store i32 3, i32* %5, align 4
  br label %25

25:                                               ; preds = %44, %21
  %26 = load i32, i32* %5, align 4
  %27 = load i32, i32* %3, align 4
  %28 = icmp slt i32 %26, %27
  br i1 %28, label %29, label %47

29:                                               ; preds = %25
  %30 = load i32, i32* %5, align 4
  %31 = sub nsw i32 %30, 1
  %32 = sext i32 %31 to i64
  %33 = getelementptr inbounds [30 x i32], [30 x i32]* %7, i64 0, i64 %32
  %34 = load i32, i32* %33, align 4
  %35 = load i32, i32* %5, align 4
  %36 = sub nsw i32 %35, 2
  %37 = sext i32 %36 to i64
  %38 = getelementptr inbounds [30 x i32], [30 x i32]* %7, i64 0, i64 %37
  %39 = load i32, i32* %38, align 4
  %40 = add nsw i32 %34, %39
  %41 = load i32, i32* %5, align 4
  %42 = sext i32 %41 to i64
  %43 = getelementptr inbounds [30 x i32], [30 x i32]* %7, i64 0, i64 %42
  store i32 %40, i32* %43, align 4
  br label %44

44:                                               ; preds = %29
  %45 = load i32, i32* %5, align 4
  %46 = add nsw i32 %45, 1
  store i32 %46, i32* %5, align 4
  br label %25

47:                                               ; preds = %25
  store i32 0, i32* %4, align 4
  br label %48

48:                                               ; preds = %62, %47
  %49 = load i32, i32* %4, align 4
  %50 = load i32, i32* %2, align 4
  %51 = icmp slt i32 %49, %50
  br i1 %51, label %52, label %65

52:                                               ; preds = %48
  %53 = load i32, i32* %4, align 4
  %54 = sext i32 %53 to i64
  %55 = getelementptr inbounds [30 x i32], [30 x i32]* %6, i64 0, i64 %54
  %56 = load i32, i32* %55, align 4
  %57 = sub nsw i32 %56, 1
  %58 = sext i32 %57 to i64
  %59 = getelementptr inbounds [30 x i32], [30 x i32]* %7, i64 0, i64 %58
  %60 = load i32, i32* %59, align 4
  %61 = call i32 (i8*, ...) @printf(i8* getelementptr inbounds ([4 x i8], [4 x i8]* @.str.1, i64 0, i64 0), i32 %60)
  br label %62

62:                                               ; preds = %52
  %63 = load i32, i32* %4, align 4
  %64 = add nsw i32 %63, 1
  store i32 %64, i32* %4, align 4
  br label %48

65:                                               ; preds = %48
  ret i32 0
}

declare dso_local i32 @__isoc99_scanf(i8*, ...) #1

declare dso_local i32 @printf(i8*, ...) #1


!llvm.module.flags = !{!0}
!llvm.ident = !{!1}

!0 = !{i32 1, !"wchar_size", i32 4}
!1 = !{!"clang version 10.0.0-4ubuntu1 "}
